; Function Attrs: mustprogress nounwind willreturn uwtable
define void @Abc_FrameSetArrayMapping(ptr noundef %0) local_unnamed_addr #3 {
  %2 = load ptr, ptr @s_GlobalFrame, align 8, !tbaa !3
  %3 = getelementptr inbounds nuw i8, ptr %2, i64 608
  %4 = load ptr, ptr %3, align 8, !tbaa !75
  %.not = icmp eq ptr %4, null
  br i1 %.not, label %6, label %5

5:                                                ; preds = %1
  tail call void @free(ptr noundef nonnull %4) #20
  br label %6

6:                                                ; preds = %1, %5
  store ptr %0, ptr %3, align 8, !tbaa !75
  ret void
}